target datalayout = "e-m:e-p270:32:32-p271:32:32-p272:64:64-i64:64-i128:128-f80:128-n8:16:32:64-S128"
target triple = "x86_64-pc-linux-gnu"

%struct._asn1_ctx_t = type { i32, i32, i8, ptr, ptr, ptr, ptr, ptr, %struct.anon, %struct.anon.2, %struct.anon.3, ptr }
%struct.anon = type { i32, i8, i8, i8, ptr, ptr, i32, i32, ptr, ptr, ptr, %union.anon }
%union.anon = type { %struct.anon.0 }
%struct.anon.0 = type { ptr }
%struct.anon.2 = type { ptr, ptr, ptr }
%struct.anon.3 = type { i32, i8, ptr, i32, i32, ptr, ptr, ptr, %union.anon.4 }
%union.anon.4 = type { %struct.anon.5 }
%struct.anon.5 = type { ptr }
%struct._address = type { i32, i32, ptr, ptr }
%struct._channel_info_t = type { [32 x i8], ptr, %struct._unicast_addr_t, %struct._unicast_addr_t, i32, i8, i8 }
%struct._unicast_addr_t = type { %struct._address, [16 x i8], i32 }
%struct._gef_ctx_t = type { i32, ptr, ptr, ptr, ptr, ptr }

@upcoming_channel = internal global ptr null, align 8
@.str.2925 = private unnamed_addr constant [16 x i8] c"0.0.8.245.1.1.1\00", align 1
@amr_handle = internal global ptr null, align 8
@h245_lc_dissector = internal global ptr null, align 8
@.str.3005 = private unnamed_addr constant [17 x i8] c"0.0.8.235.0.3.76\00", align 1

; Function Attrs: null_pointer_is_valid sspstrong uwtable
define internal i32 @dissect_h245_T_standardOid(ptr noundef %0, i32 noundef %1, ptr noundef %2, ptr noundef %3, i32 noundef %4) #1 {
  %6 = alloca ptr, align 8
  %7 = alloca i32, align 4
  %8 = alloca ptr, align 8
  %9 = alloca ptr, align 8
  %10 = alloca i32, align 4
  %11 = alloca ptr, align 8
  %12 = alloca ptr, align 8
  store ptr %0, ptr %6, align 8
  store i32 %1, ptr %7, align 4
  store ptr %2, ptr %8, align 8
  store ptr %3, ptr %9, align 8
  store i32 %4, ptr %10, align 4
  call void @llvm.lifetime.start.p0(i64 8, ptr %11) #12
  store ptr null, ptr %11, align 8
  call void @llvm.lifetime.start.p0(i64 8, ptr %12) #12
  %13 = load ptr, ptr %6, align 8
  %14 = load i32, ptr %7, align 4
  %15 = load ptr, ptr %8, align 8
  %16 = load ptr, ptr %9, align 8
  %17 = load i32, ptr %10, align 4
  %18 = call i32 @dissect_per_object_identifier_str(ptr noundef %13, i32 noundef %14, ptr noundef %15, ptr noundef %16, i32 noundef %17, ptr noundef %11)
  store i32 %18, ptr %7, align 4
  %19 = load ptr, ptr %8, align 8
  %20 = getelementptr inbounds nuw %struct._asn1_ctx_t, ptr %19, i32 0, i32 7
  %21 = load ptr, ptr %20, align 8
  %22 = call ptr @gef_ctx_get(ptr noundef %21)
  store ptr %22, ptr %12, align 8
  %23 = load ptr, ptr %12, align 8
  %24 = icmp ne ptr %23, null
  br i1 %24, label %25, label %29

25:                                               ; preds = %5
  %26 = load ptr, ptr %11, align 8
  %27 = load ptr, ptr %12, align 8
  %28 = getelementptr inbounds nuw %struct._gef_ctx_t, ptr %27, i32 0, i32 3
  store ptr %26, ptr %28, align 8
  br label %29

29:                                               ; preds = %25, %5
  %30 = load ptr, ptr %11, align 8
  %31 = call i32 @strcmp(ptr noundef %30, ptr noundef @.str.3005) #14
  %32 = icmp eq i32 %31, 0
  br i1 %32, label %33, label %40

33:                                               ; preds = %29
  %34 = load ptr, ptr @upcoming_channel, align 8
  %35 = icmp ne ptr %34, null
  br i1 %35, label %36, label %39

36:                                               ; preds = %33
  %37 = load ptr, ptr @upcoming_channel, align 8
  %38 = getelementptr inbounds nuw %struct._channel_info_t, ptr %37, i32 0, i32 5
  store i8 1, ptr %38, align 4
  br label %39

39:                                               ; preds = %36, %33
  br label %40

40:                                               ; preds = %39, %29
  %41 = load ptr, ptr @h245_lc_dissector, align 8
  %42 = icmp ne ptr %41, null
  br i1 %42, label %49, label %43

43:                                               ; preds = %40
  %44 = load ptr, ptr %11, align 8
  %45 = call i32 @strcmp(ptr noundef %44, ptr noundef @.str.2925) #14
  %46 = icmp eq i32 %45, 0
  br i1 %46, label %47, label %49

47:                                               ; preds = %43
  %48 = load ptr, ptr @amr_handle, align 8
  store ptr %48, ptr @h245_lc_dissector, align 8
  br label %49

49:                                               ; preds = %47, %43, %40
  %50 = load i32, ptr %7, align 4
  call void @llvm.lifetime.end.p0(i64 8, ptr %12) #12
  call void @llvm.lifetime.end.p0(i64 8, ptr %11) #12
  ret i32 %50
}