; Function Attrs: null_pointer_is_valid sspstrong uwtable
define internal i32 @dissect_h245_T_standardOid(ptr noundef %0, i32 noundef %1, ptr noundef %2, ptr noundef %3, i32 noundef %4) #1 {
  %6 = alloca ptr, align 8
  call void @llvm.lifetime.start.p0(i64 8, ptr nonnull %6) #13
  store ptr null, ptr %6, align 8
  %7 = call i32 @dissect_per_object_identifier_str(ptr noundef %0, i32 noundef %1, ptr noundef %2, ptr noundef %3, i32 noundef %4, ptr noundef nonnull %6)
  %8 = getelementptr inbounds nuw i8, ptr %2, i64 48
  %9 = load ptr, ptr %8, align 8
  %10 = call ptr @gef_ctx_get(ptr noundef %9)
  %.not = icmp eq ptr %10, null
  %.pre = load ptr, ptr %6, align 8
  br i1 %.not, label %13, label %11

11:                                               ; preds = %5
  %12 = getelementptr inbounds nuw i8, ptr %10, i64 24
  store ptr %.pre, ptr %12, align 8
  br label %13

13:                                               ; preds = %11, %5
  %14 = call i32 @strcmp(ptr noundef %.pre, ptr noundef nonnull dereferenceable(17) @.str.3005) #12
  %15 = icmp eq i32 %14, 0
  %16 = load ptr, ptr @upcoming_channel, align 8
  %17 = icmp ne ptr %16, null
  %or.cond = select i1 %15, i1 %17, i1 false
  br i1 %or.cond, label %18, label %20

18:                                               ; preds = %13
  %19 = getelementptr inbounds nuw i8, ptr %16, i64 140
  store i8 1, ptr %19, align 4
  br label %20

20:                                               ; preds = %18, %13
  %21 = load ptr, ptr @h245_lc_dissector, align 8
  %.not10 = icmp eq ptr %21, null
  br i1 %.not10, label %22, label %27

22:                                               ; preds = %20
  %23 = call i32 @strcmp(ptr noundef %.pre, ptr noundef nonnull dereferenceable(16) @.str.2925) #12
  %24 = icmp eq i32 %23, 0
  br i1 %24, label %25, label %27

25:                                               ; preds = %22
  %26 = load ptr, ptr @amr_handle, align 8
  store ptr %26, ptr @h245_lc_dissector, align 8
  br label %27

27:                                               ; preds = %25, %22, %20
  call void @llvm.lifetime.end.p0(i64 8, ptr nonnull %6) #13
  ret i32 %7
}